; Function Attrs: nounwind uwtable
define noalias nonnull ptr @l_Lean_Widget_instFromJsonTaggedText___rarg(ptr noundef %0) #1 {
  tail call void @lean_inc_heartbeat() #5
  %2 = tail call noalias ptr @mi_malloc_small(i64 noundef 32) #5
  %3 = icmp eq ptr %2, null
  br i1 %3, label %4, label %lean_alloc_closure.exit

4:                                                ; preds = %1
  tail call void @lean_internal_panic_out_of_memory() #6
  unreachable

lean_alloc_closure.exit:                          ; preds = %1
  %5 = getelementptr inbounds nuw i8, ptr %2, i64 4
  store i32 1, ptr %2, align 4, !tbaa !9
  store i32 -184549344, ptr %5, align 4
  %6 = getelementptr inbounds nuw i8, ptr %2, i64 8
  store ptr @l___private_Lean_Widget_TaggedText_0__Lean_Widget_fromJsonTaggedText____x40_Lean_Widget_TaggedText___hyg_407____rarg, ptr %6, align 8, !tbaa !4
  %7 = getelementptr inbounds nuw i8, ptr %2, i64 16
  store i16 2, ptr %7, align 8, !tbaa !15
  %8 = getelementptr inbounds nuw i8, ptr %2, i64 18
  store i16 1, ptr %8, align 2, !tbaa !15
  %9 = getelementptr inbounds nuw i8, ptr %2, i64 24
  store ptr %0, ptr %9, align 8, !tbaa !4
  ret ptr %2
}